target datalayout = "e-m:e-p270:32:32-p271:32:32-p272:64:64-i64:64-i128:128-f80:128-n8:16:32:64-S128"
target triple = "x86_64-pc-linux-gnu"

%struct.Llb_Mtr_t_ = type { i32, i32, i32, i32, ptr, ptr, ptr, ptr, ptr, ptr, ptr }

; Function Attrs: nounwind uwtable
define void @Llb_MtrCombineSelectedColumns(ptr noundef %0, i32 noundef %1, i32 noundef %2) #0 {
  %4 = alloca ptr, align 8
  %5 = alloca i32, align 4
  %6 = alloca i32, align 4
  %7 = alloca i32, align 4
  store ptr %0, ptr %4, align 8, !tbaa !3
  store i32 %1, ptr %5, align 4, !tbaa !8
  store i32 %2, ptr %6, align 4, !tbaa !8
  call void @llvm.lifetime.start.p0(i64 4, ptr %7) #4
  store i32 0, ptr %7, align 4, !tbaa !8
  br label %8

8:                                                ; preds = %124, %3
  %9 = load i32, ptr %7, align 4, !tbaa !8
  %10 = load ptr, ptr %4, align 8, !tbaa !3
  %11 = getelementptr inbounds nuw %struct.Llb_Mtr_t_, ptr %10, i32 0, i32 2
  %12 = load i32, ptr %11, align 8, !tbaa !10
  %13 = icmp slt i32 %9, %12
  br i1 %13, label %14, label %127

14:                                               ; preds = %8
  %15 = load ptr, ptr %4, align 8, !tbaa !3
  %16 = getelementptr inbounds nuw %struct.Llb_Mtr_t_, ptr %15, i32 0, i32 7
  %17 = load ptr, ptr %16, align 8, !tbaa !18
  %18 = load i32, ptr %5, align 4, !tbaa !8
  %19 = sext i32 %18 to i64
  %20 = getelementptr inbounds ptr, ptr %17, i64 %19
  %21 = load ptr, ptr %20, align 8, !tbaa !19
  %22 = load i32, ptr %7, align 4, !tbaa !8
  %23 = sext i32 %22 to i64
  %24 = getelementptr inbounds i8, ptr %21, i64 %23
  %25 = load i8, ptr %24, align 1, !tbaa !20
  %26 = sext i8 %25 to i32
  %27 = icmp eq i32 %26, 1
  br i1 %27, label %28, label %51

28:                                               ; preds = %14
  %29 = load ptr, ptr %4, align 8, !tbaa !3
  %30 = getelementptr inbounds nuw %struct.Llb_Mtr_t_, ptr %29, i32 0, i32 7
  %31 = load ptr, ptr %30, align 8, !tbaa !18
  %32 = load i32, ptr %6, align 4, !tbaa !8
  %33 = sext i32 %32 to i64
  %34 = getelementptr inbounds ptr, ptr %31, i64 %33
  %35 = load ptr, ptr %34, align 8, !tbaa !19
  %36 = load i32, ptr %7, align 4, !tbaa !8
  %37 = sext i32 %36 to i64
  %38 = getelementptr inbounds i8, ptr %35, i64 %37
  %39 = load i8, ptr %38, align 1, !tbaa !20
  %40 = sext i8 %39 to i32
  %41 = icmp eq i32 %40, 1
  br i1 %41, label %42, label %51

42:                                               ; preds = %28
  %43 = load ptr, ptr %4, align 8, !tbaa !3
  %44 = getelementptr inbounds nuw %struct.Llb_Mtr_t_, ptr %43, i32 0, i32 6
  %45 = load ptr, ptr %44, align 8, !tbaa !21
  %46 = load i32, ptr %7, align 4, !tbaa !8
  %47 = sext i32 %46 to i64
  %48 = getelementptr inbounds i32, ptr %45, i64 %47
  %49 = load i32, ptr %48, align 4, !tbaa !8
  %50 = add nsw i32 %49, -1
  store i32 %50, ptr %48, align 4, !tbaa !8
  br label %51

51:                                               ; preds = %42, %28, %14
  %52 = load ptr, ptr %4, align 8, !tbaa !3
  %53 = getelementptr inbounds nuw %struct.Llb_Mtr_t_, ptr %52, i32 0, i32 7
  %54 = load ptr, ptr %53, align 8, !tbaa !18
  %55 = load i32, ptr %5, align 4, !tbaa !8
  %56 = sext i32 %55 to i64
  %57 = getelementptr inbounds ptr, ptr %54, i64 %56
  %58 = load ptr, ptr %57, align 8, !tbaa !19
  %59 = load i32, ptr %7, align 4, !tbaa !8
  %60 = sext i32 %59 to i64
  %61 = getelementptr inbounds i8, ptr %58, i64 %60
  %62 = load i8, ptr %61, align 1, !tbaa !20
  %63 = sext i8 %62 to i32
  %64 = icmp eq i32 %63, 0
  br i1 %64, label %65, label %98

65:                                               ; preds = %51
  %66 = load ptr, ptr %4, align 8, !tbaa !3
  %67 = getelementptr inbounds nuw %struct.Llb_Mtr_t_, ptr %66, i32 0, i32 7
  %68 = load ptr, ptr %67, align 8, !tbaa !18
  %69 = load i32, ptr %6, align 4, !tbaa !8
  %70 = sext i32 %69 to i64
  %71 = getelementptr inbounds ptr, ptr %68, i64 %70
  %72 = load ptr, ptr %71, align 8, !tbaa !19
  %73 = load i32, ptr %7, align 4, !tbaa !8
  %74 = sext i32 %73 to i64
  %75 = getelementptr inbounds i8, ptr %72, i64 %74
  %76 = load i8, ptr %75, align 1, !tbaa !20
  %77 = sext i8 %76 to i32
  %78 = icmp eq i32 %77, 1
  br i1 %78, label %79, label %98

79:                                               ; preds = %65
  %80 = load ptr, ptr %4, align 8, !tbaa !3
  %81 = getelementptr inbounds nuw %struct.Llb_Mtr_t_, ptr %80, i32 0, i32 7
  %82 = load ptr, ptr %81, align 8, !tbaa !18
  %83 = load i32, ptr %5, align 4, !tbaa !8
  %84 = sext i32 %83 to i64
  %85 = getelementptr inbounds ptr, ptr %82, i64 %84
  %86 = load ptr, ptr %85, align 8, !tbaa !19
  %87 = load i32, ptr %7, align 4, !tbaa !8
  %88 = sext i32 %87 to i64
  %89 = getelementptr inbounds i8, ptr %86, i64 %88
  store i8 1, ptr %89, align 1, !tbaa !20
  %90 = load ptr, ptr %4, align 8, !tbaa !3
  %91 = getelementptr inbounds nuw %struct.Llb_Mtr_t_, ptr %90, i32 0, i32 4
  %92 = load ptr, ptr %91, align 8, !tbaa !25
  %93 = load i32, ptr %5, align 4, !tbaa !8
  %94 = sext i32 %93 to i64
  %95 = getelementptr inbounds i32, ptr %92, i64 %94
  %96 = load i32, ptr %95, align 4, !tbaa !8
  %97 = add nsw i32 %96, 1
  store i32 %97, ptr %95, align 4, !tbaa !8
  br label %98

98:                                               ; preds = %79, %65, %51
  %99 = load ptr, ptr %4, align 8, !tbaa !3
  %100 = getelementptr inbounds nuw %struct.Llb_Mtr_t_, ptr %99, i32 0, i32 7
  %101 = load ptr, ptr %100, align 8, !tbaa !18
  %102 = load i32, ptr %6, align 4, !tbaa !8
  %103 = sext i32 %102 to i64
  %104 = getelementptr inbounds ptr, ptr %101, i64 %103
  %105 = load ptr, ptr %104, align 8, !tbaa !19
  %106 = load i32, ptr %7, align 4, !tbaa !8
  %107 = sext i32 %106 to i64
  %108 = getelementptr inbounds i8, ptr %105, i64 %107
  %109 = load i8, ptr %108, align 1, !tbaa !20
  %110 = sext i8 %109 to i32
  %111 = icmp eq i32 %110, 1
  br i1 %111, label %112, label %123

112:                                              ; preds = %98
  %113 = load ptr, ptr %4, align 8, !tbaa !3
  %114 = getelementptr inbounds nuw %struct.Llb_Mtr_t_, ptr %113, i32 0, i32 7
  %115 = load ptr, ptr %114, align 8, !tbaa !18
  %116 = load i32, ptr %6, align 4, !tbaa !8
  %117 = sext i32 %116 to i64
  %118 = getelementptr inbounds ptr, ptr %115, i64 %117
  %119 = load ptr, ptr %118, align 8, !tbaa !19
  %120 = load i32, ptr %7, align 4, !tbaa !8
  %121 = sext i32 %120 to i64
  %122 = getelementptr inbounds i8, ptr %119, i64 %121
  store i8 0, ptr %122, align 1, !tbaa !20
  br label %123

123:                                              ; preds = %112, %98
  br label %124

124:                                              ; preds = %123
  %125 = load i32, ptr %7, align 4, !tbaa !8
  %126 = add nsw i32 %125, 1
  store i32 %126, ptr %7, align 4, !tbaa !8
  br label %8, !llvm.loop !56

127:                                              ; preds = %8
  %128 = load ptr, ptr %4, align 8, !tbaa !3
  %129 = getelementptr inbounds nuw %struct.Llb_Mtr_t_, ptr %128, i32 0, i32 4
  %130 = load ptr, ptr %129, align 8, !tbaa !25
  %131 = load i32, ptr %6, align 4, !tbaa !8
  %132 = sext i32 %131 to i64
  %133 = getelementptr inbounds i32, ptr %130, i64 %132
  store i32 0, ptr %133, align 4, !tbaa !8
  call void @llvm.lifetime.end.p0(i64 4, ptr %7) #4
  ret void
}