; Function Attrs: nofree norecurse nosync nounwind memory(readwrite, inaccessiblemem: none) uwtable
define void @Llb_MtrCombineSelectedColumns(ptr noundef readonly captures(none) %0, i32 noundef %1, i32 noundef %2) local_unnamed_addr #3 {
  %4 = getelementptr inbounds nuw i8, ptr %0, i64 8
  %5 = load i32, ptr %4, align 8, !tbaa !3
  %6 = icmp sgt i32 %5, 0
  br i1 %6, label %.lr.ph, label %.._crit_edge_crit_edge

.._crit_edge_crit_edge:                           ; preds = %3
  %.pre32 = sext i32 %2 to i64
  br label %._crit_edge

.lr.ph:                                           ; preds = %3
  %7 = getelementptr inbounds nuw i8, ptr %0, i64 40
  %8 = sext i32 %1 to i64
  %9 = sext i32 %2 to i64
  %10 = getelementptr inbounds nuw i8, ptr %0, i64 32
  %11 = getelementptr inbounds nuw i8, ptr %0, i64 16
  br label %12

12:                                               ; preds = %.lr.ph, %50
  %indvars.iv = phi i64 [ 0, %.lr.ph ], [ %indvars.iv.next, %50 ]
  %13 = load ptr, ptr %7, align 8, !tbaa !15
  %14 = getelementptr inbounds ptr, ptr %13, i64 %8
  %15 = load ptr, ptr %14, align 8, !tbaa !16
  %16 = getelementptr inbounds nuw i8, ptr %15, i64 %indvars.iv
  %17 = load i8, ptr %16, align 1, !tbaa !17
  %18 = icmp eq i8 %17, 1
  br i1 %18, label %19, label %thread-pre-split

19:                                               ; preds = %12
  %20 = getelementptr inbounds ptr, ptr %13, i64 %9
  %21 = load ptr, ptr %20, align 8, !tbaa !16
  %22 = getelementptr inbounds nuw i8, ptr %21, i64 %indvars.iv
  %23 = load i8, ptr %22, align 1, !tbaa !17
  %24 = icmp eq i8 %23, 1
  br i1 %24, label %25, label %thread-pre-split.thread

25:                                               ; preds = %19
  %26 = load ptr, ptr %10, align 8, !tbaa !18
  %27 = getelementptr inbounds nuw i32, ptr %26, i64 %indvars.iv
  %28 = load i32, ptr %27, align 4, !tbaa !19
  %29 = add nsw i32 %28, -1
  store i32 %29, ptr %27, align 4, !tbaa !19
  %.pr.pre = load i8, ptr %16, align 1, !tbaa !17
  br label %thread-pre-split

thread-pre-split:                                 ; preds = %25, %12
  %30 = phi i8 [ %17, %12 ], [ %.pr.pre, %25 ]
  %31 = icmp eq i8 %30, 0
  br i1 %31, label %32, label %thread-pre-split.thread

32:                                               ; preds = %thread-pre-split
  %33 = getelementptr inbounds ptr, ptr %13, i64 %9
  %34 = load ptr, ptr %33, align 8, !tbaa !16
  %35 = getelementptr inbounds nuw i8, ptr %34, i64 %indvars.iv
  %36 = load i8, ptr %35, align 1, !tbaa !17
  %37 = icmp eq i8 %36, 1
  br i1 %37, label %38, label %thread-pre-split.thread

38:                                               ; preds = %32
  store i8 1, ptr %16, align 1, !tbaa !17
  %39 = load ptr, ptr %11, align 8, !tbaa !24
  %40 = getelementptr inbounds i32, ptr %39, i64 %8
  %41 = load i32, ptr %40, align 4, !tbaa !19
  %42 = add nsw i32 %41, 1
  store i32 %42, ptr %40, align 4, !tbaa !19
  %.pre = load ptr, ptr %7, align 8, !tbaa !15
  br label %thread-pre-split.thread

thread-pre-split.thread:                          ; preds = %19, %38, %32, %thread-pre-split
  %43 = phi ptr [ %.pre, %38 ], [ %13, %32 ], [ %13, %thread-pre-split ], [ %13, %19 ]
  %44 = getelementptr inbounds ptr, ptr %43, i64 %9
  %45 = load ptr, ptr %44, align 8, !tbaa !16
  %46 = getelementptr inbounds nuw i8, ptr %45, i64 %indvars.iv
  %47 = load i8, ptr %46, align 1, !tbaa !17
  %48 = icmp eq i8 %47, 1
  br i1 %48, label %49, label %50

49:                                               ; preds = %thread-pre-split.thread
  store i8 0, ptr %46, align 1, !tbaa !17
  br label %50

50:                                               ; preds = %thread-pre-split.thread, %49
  %indvars.iv.next = add nuw nsw i64 %indvars.iv, 1
  %51 = load i32, ptr %4, align 8, !tbaa !3
  %52 = sext i32 %51 to i64
  %53 = icmp slt i64 %indvars.iv.next, %52
  br i1 %53, label %12, label %._crit_edge, !llvm.loop !51

._crit_edge:                                      ; preds = %50, %.._crit_edge_crit_edge
  %.pre-phi = phi i64 [ %.pre32, %.._crit_edge_crit_edge ], [ %9, %50 ]
  %54 = getelementptr inbounds nuw i8, ptr %0, i64 16
  %55 = load ptr, ptr %54, align 8, !tbaa !24
  %56 = getelementptr inbounds i32, ptr %55, i64 %.pre-phi
  store i32 0, ptr %56, align 4, !tbaa !19
  ret void
}